; ModuleID = '25/814.c'
source_filename = "25/814.c"
target datalayout = "e-m:e-p270:32:32-p271:32:32-p272:64:64-i64:64-f80:128-n8:16:32:64-S128"
target triple = "x86_64-pc-linux-gnu"

@.str = private unnamed_addr constant [3 x i8] c"%d\00", align 1

; Function Attrs: noinline nounwind uwtable
define dso_local i32 @main() #0 {
  %1 = alloca i32, align 4
  %2 = alloca i32, align 4
  %3 = alloca i32, align 4
  %4 = alloca i32, align 4
  %5 = alloca [1001 x i32], align 16
  %6 = alloca i32, align 4
  store i32 0, i32* %1, align 4
  %7 = call i32 (i8*, ...) @__isoc99_scanf(i8* getelementptr inbounds ([3 x i8], [3 x i8]* @.str, i64 0, i64 0), i32* %2)
  %8 = bitcast [1001 x i32]* %5 to i8*
  call void @llvm.memset.p0i8.i64(i8* align 16 %8, i8 0, i64 4004, i1 false)
  %9 = getelementptr inbounds [1001 x i32], [1001 x i32]* %5, i64 0, i64 0
  store i32 1, i32* %9, align 16
  br label %10

10:                                               ; preds = %63, %0
  %11 = load i32, i32* %2, align 4
  %12 = add nsw i32 %11, -1
  store i32 %12, i32* %2, align 4
  %13 = icmp ne i32 %11, 0
  br i1 %13, label %14, label %64

14:                                               ; preds = %10
  store i32 0, i32* %3, align 4
  br label %15

15:                                               ; preds = %27, %14
  %16 = load i32, i32* %3, align 4
  %17 = icmp sle i32 %16, 1000
  br i1 %17, label %18, label %30

18:                                               ; preds = %15
  %19 = load i32, i32* %3, align 4
  %20 = sext i32 %19 to i64
  %21 = getelementptr inbounds [1001 x i32], [1001 x i32]* %5, i64 0, i64 %20
  %22 = load i32, i32* %21, align 4
  %23 = mul nsw i32 %22, 2
  %24 = load i32, i32* %3, align 4
  %25 = sext i32 %24 to i64
  %26 = getelementptr inbounds [1001 x i32], [1001 x i32]* %5, i64 0, i64 %25
  store i32 %23, i32* %26, align 4
  br label %27

27:                                               ; preds = %18
  %28 = load i32, i32* %3, align 4
  %29 = add nsw i32 %28, 1
  store i32 %29, i32* %3, align 4
  br label %15

30:                                               ; preds = %15
  store i32 0, i32* %3, align 4
  br label %31

31:                                               ; preds = %60, %30
  %32 = load i32, i32* %3, align 4
  %33 = icmp sle i32 %32, 1000
  br i1 %33, label %34, label %63

34:                                               ; preds = %31
  %35 = load i32, i32* %3, align 4
  %36 = sext i32 %35 to i64
  %37 = getelementptr inbounds [1001 x i32], [1001 x i32]* %5, i64 0, i64 %36
  %38 = load i32, i32* %37, align 4
  %39 = icmp sge i32 %38, 10
  br i1 %39, label %40, label %59

40:                                               ; preds = %34
  %41 = load i32, i32* %3, align 4
  %42 = sext i32 %41 to i64
  %43 = getelementptr inbounds [1001 x i32], [1001 x i32]* %5, i64 0, i64 %42
  %44 = load i32, i32* %43, align 4
  %45 = sub nsw i32 %44, 10
  %46 = load i32, i32* %3, align 4
  %47 = sext i32 %46 to i64
  %48 = getelementptr inbounds [1001 x i32], [1001 x i32]* %5, i64 0, i64 %47
  store i32 %45, i32* %48, align 4
  %49 = load i32, i32* %3, align 4
  %50 = add nsw i32 %49, 1
  %51 = sext i32 %50 to i64
  %52 = getelementptr inbounds [1001 x i32], [1001 x i32]* %5, i64 0, i64 %51
  %53 = load i32, i32* %52, align 4
  %54 = add nsw i32 %53, 1
  %55 = load i32, i32* %3, align 4
  %56 = add nsw i32 %55, 1
  %57 = sext i32 %56 to i64
  %58 = getelementptr inbounds [1001 x i32], [1001 x i32]* %5, i64 0, i64 %57
  store i32 %54, i32* %58, align 4
  br label %59

59:                                               ; preds = %40, %34
  br label %60

60:                                               ; preds = %59
  %61 = load i32, i32* %3, align 4
  %62 = add nsw i32 %61, 1
  store i32 %62, i32* %3, align 4
  br label %31

63:                                               ; preds = %31
  br label %10

64:                                               ; preds = %10
  store i32 0, i32* %6, align 4
  store i32 1000, i32* %3, align 4
  br label %65

65:                                               ; preds = %94, %64
  %66 = load i32, i32* %3, align 4
  %67 = icmp sge i32 %66, 0
  br i1 %67, label %68, label %97

68:                                               ; preds = %65
  %69 = load i32, i32* %3, align 4
  %70 = sext i32 %69 to i64
  %71 = getelementptr inbounds [1001 x i32], [1001 x i32]* %5, i64 0, i64 %70
  %72 = load i32, i32* %71, align 4
  %73 = icmp ne i32 %72, 0
  br i1 %73, label %74, label %89

74:                                               ; preds = %68
  %75 = load i32, i32* %3, align 4
  store i32 %75, i32* %4, align 4
  br label %76

76:                                               ; preds = %85, %74
  %77 = load i32, i32* %4, align 4
  %78 = icmp sge i32 %77, 0
  br i1 %78, label %79, label %88

79:                                               ; preds = %76
  %80 = load i32, i32* %4, align 4
  %81 = sext i32 %80 to i64
  %82 = getelementptr inbounds [1001 x i32], [1001 x i32]* %5, i64 0, i64 %81
  %83 = load i32, i32* %82, align 4
  %84 = call i32 (i8*, ...) @printf(i8* getelementptr inbounds ([3 x i8], [3 x i8]* @.str, i64 0, i64 0), i32 %83)
  br label %85

85:                                               ; preds = %79
  %86 = load i32, i32* %4, align 4
  %87 = add nsw i32 %86, -1
  store i32 %87, i32* %4, align 4
  br label %76

88:                                               ; preds = %76
  store i32 1, i32* %6, align 4
  br label %97

89:                                               ; preds = %68
  %90 = load i32, i32* %6, align 4
  %91 = icmp ne i32 %90, 0
  br i1 %91, label %92, label %93

92:                                               ; preds = %89
  br label %97

93:                                               ; preds = %89
  br label %94

94:                                               ; preds = %93
  %95 = load i32, i32* %3, align 4
  %96 = add nsw i32 %95, -1
  store i32 %96, i32* %3, align 4
  br label %65

97:                                               ; preds = %92, %88, %65
  %98 = load i32, i32* %1, align 4
  ret i32 %98
}

declare dso_local i32 @__isoc99_scanf(i8*, ...) #1

; Function Attrs: argmemonly nounwind willreturn
declare void @llvm.memset.p0i8.i64(i8* nocapture writeonly, i8, i64, i1 immarg) #2

declare dso_local i32 @printf(i8*, ...) #1


!llvm.module.flags = !{!0}
!llvm.ident = !{!1}

!0 = !{i32 1, !"wchar_size", i32 4}
!1 = !{!"clang version 10.0.0-4ubuntu1 "}
